libopendbx.so.1 libopendbx1 #MINVER#
 _odbx_lib_close@Base 1.4.6
 _odbx_lib_open@Base 1.4.6
 odbx_bind@Base 1.4.6
 odbx_bind_simple@Base 1.4.6
 odbx_capabilities@Base 1.4.6
 odbx_column_count@Base 1.4.6
 odbx_column_name@Base 1.4.6
 odbx_column_type@Base 1.4.6
 odbx_error@Base 1.4.6
 odbx_error_type@Base 1.4.6
 odbx_escape@Base 1.4.6
 odbx_field_length@Base 1.4.6
 odbx_field_value@Base 1.4.6
 odbx_finish@Base 1.4.6
 odbx_get_option@Base 1.4.6
 odbx_init@Base 1.4.6
 odbx_lo_close@Base 1.4.6
 odbx_lo_open@Base 1.4.6
 odbx_lo_read@Base 1.4.6
 odbx_lo_write@Base 1.4.6
 odbx_query@Base 1.4.6
 odbx_result@Base 1.4.6
 odbx_result_finish@Base 1.4.6
 odbx_result_free@Base 1.4.6
 odbx_row_fetch@Base 1.4.6
 odbx_rows_affected@Base 1.4.6
 odbx_set_option@Base 1.4.6
 odbx_unbind@Base 1.4.6
libopendbxplus.so.1 libopendbx1 #MINVER#
 _ZN7OpenDBX11Result_Impl10columnNameEm@Base 1.4.6
 _ZN7OpenDBX11Result_Impl10columnTypeEm@Base 1.4.6
 _ZN7OpenDBX11Result_Impl10fieldValueEm@Base 1.4.6
 _ZN7OpenDBX11Result_Impl11columnCountEv@Base 1.4.6
 _ZN7OpenDBX11Result_Impl11fieldLengthEm@Base 1.4.6
 _ZN7OpenDBX11Result_Impl12rowsAffectedEv@Base 1.4.6
 _ZN7OpenDBX11Result_Impl6finishEv@Base 1.4.6
 _ZN7OpenDBX11Result_Impl6getLobEPKc@Base 1.4.6
 _ZN7OpenDBX11Result_Impl6getRowEv@Base 1.4.6
 _ZN7OpenDBX11Result_Impl9columnPosERKSs@Base 1.4.6
 _ZN7OpenDBX11Result_Impl9getResultEP7timevalm@Base 1.4.6
 _ZN7OpenDBX11Result_ImplC1EP6odbx_t@Base 1.4.6
 _ZN7OpenDBX11Result_ImplC2EP6odbx_t@Base 1.4.6
 _ZN7OpenDBX11Result_ImplD0Ev@Base 1.4.6
 _ZN7OpenDBX11Result_ImplD1Ev@Base 1.4.6
 _ZN7OpenDBX11Result_ImplD2Ev@Base 1.4.6
 _ZN7OpenDBX15StmtSimple_Impl7executeEv@Base 1.4.6
 _ZN7OpenDBX15StmtSimple_ImplC1EP6odbx_tRKSs@Base 1.4.6
 _ZN7OpenDBX15StmtSimple_ImplC1Ev@Base 1.4.6
 _ZN7OpenDBX15StmtSimple_ImplC2EP6odbx_tRKSs@Base 1.4.6
 _ZN7OpenDBX15StmtSimple_ImplC2Ev@Base 1.4.6
 _ZN7OpenDBX15StmtSimple_ImplD0Ev@Base 1.4.6
 _ZN7OpenDBX15StmtSimple_ImplD1Ev@Base 1.4.6
 _ZN7OpenDBX15StmtSimple_ImplD2Ev@Base 1.4.6
 _ZN7OpenDBX3Lob4readEPvm@Base 1.4.6
 _ZN7OpenDBX3Lob5closeEv@Base 1.4.6
 _ZN7OpenDBX3Lob5writeEPvm@Base 1.4.6
 _ZN7OpenDBX3LobC1EPNS_9Lob_IfaceE@Base 1.4.6
 _ZN7OpenDBX3LobC1ERKS0_@Base 1.4.6
 _ZN7OpenDBX3LobC2EPNS_9Lob_IfaceE@Base 1.4.6
 _ZN7OpenDBX3LobC2ERKS0_@Base 1.4.6
 _ZN7OpenDBX3LobD1Ev@Base 1.4.6
 _ZN7OpenDBX3LobD2Ev@Base 1.4.6
 _ZN7OpenDBX3LobaSERKS0_@Base 1.4.6
 _ZN7OpenDBX4Conn13getCapabilityE7odbxcap@Base 1.4.6
 _ZN7OpenDBX4Conn4bindEPKcS2_S2_8odbxbind@Base 1.4.6
 _ZN7OpenDBX4Conn4bindERKSsS2_S2_8odbxbind@Base 1.4.6
 _ZN7OpenDBX4Conn6createEPKcmNS_4Stmt4TypeE@Base 1.4.6
 _ZN7OpenDBX4Conn6createERKSsNS_4Stmt4TypeE@Base 1.4.6
 _ZN7OpenDBX4Conn6escapeEPKcmRSs@Base 1.4.6
 _ZN7OpenDBX4Conn6escapeERKSsRSs@Base 1.4.6
 _ZN7OpenDBX4Conn6finishEv@Base 1.4.6
 _ZN7OpenDBX4Conn6unbindEv@Base 1.4.6
 _ZN7OpenDBX4Conn9getOptionE7odbxoptPv@Base 1.4.6
 _ZN7OpenDBX4Conn9setOptionE7odbxoptPv@Base 1.4.6
 _ZN7OpenDBX4ConnC1EPKcS2_S2_@Base 1.4.6
 _ZN7OpenDBX4ConnC1ERKS0_@Base 1.4.6
 _ZN7OpenDBX4ConnC1ERKSsS2_S2_@Base 1.4.6
 _ZN7OpenDBX4ConnC1Ev@Base 1.4.6
 _ZN7OpenDBX4ConnC2EPKcS2_S2_@Base 1.4.6
 _ZN7OpenDBX4ConnC2ERKS0_@Base 1.4.6
 _ZN7OpenDBX4ConnC2ERKSsS2_S2_@Base 1.4.6
 _ZN7OpenDBX4ConnC2Ev@Base 1.4.6
 _ZN7OpenDBX4ConnD1Ev@Base 1.4.6
 _ZN7OpenDBX4ConnD2Ev@Base 1.4.6
 _ZN7OpenDBX4ConnaSERKS0_@Base 1.4.6
 _ZN7OpenDBX4Stmt7executeEv@Base 1.4.6
 _ZN7OpenDBX4StmtC1EPNS_10Stmt_IfaceE@Base 1.4.6
 _ZN7OpenDBX4StmtC1ERKS0_@Base 1.4.6
 _ZN7OpenDBX4StmtC2EPNS_10Stmt_IfaceE@Base 1.4.6
 _ZN7OpenDBX4StmtC2ERKS0_@Base 1.4.6
 _ZN7OpenDBX4StmtD1Ev@Base 1.4.6
 _ZN7OpenDBX4StmtD2Ev@Base 1.4.6
 _ZN7OpenDBX4StmtaSERKS0_@Base 1.4.6
 _ZN7OpenDBX6Result10columnNameEm@Base 1.4.6
 _ZN7OpenDBX6Result10columnTypeEm@Base 1.4.6
 _ZN7OpenDBX6Result10fieldValueEm@Base 1.4.6
 _ZN7OpenDBX6Result11columnCountEv@Base 1.4.6
 _ZN7OpenDBX6Result11fieldLengthEm@Base 1.4.6
 _ZN7OpenDBX6Result12rowsAffectedEv@Base 1.4.6
 _ZN7OpenDBX6Result6finishEv@Base 1.4.6
 _ZN7OpenDBX6Result6getLobEPKc@Base 1.4.6
 _ZN7OpenDBX6Result6getRowEv@Base 1.4.6
 _ZN7OpenDBX6Result9columnPosERKSs@Base 1.4.6
 _ZN7OpenDBX6Result9getResultEP7timevalm@Base 1.4.6
 _ZN7OpenDBX6ResultC1EPNS_12Result_IfaceE@Base 1.4.6
 _ZN7OpenDBX6ResultC1ERKS0_@Base 1.4.6
 _ZN7OpenDBX6ResultC2EPNS_12Result_IfaceE@Base 1.4.6
 _ZN7OpenDBX6ResultC2ERKS0_@Base 1.4.6
 _ZN7OpenDBX6ResultD1Ev@Base 1.4.6
 _ZN7OpenDBX6ResultD2Ev@Base 1.4.6
 _ZN7OpenDBX6ResultaSERKS0_@Base 1.4.6
 _ZN7OpenDBX8Lob_Impl4readEPvm@Base 1.4.6
 _ZN7OpenDBX8Lob_Impl5closeEv@Base 1.4.6
 _ZN7OpenDBX8Lob_Impl5writeEPvm@Base 1.4.6
 _ZN7OpenDBX8Lob_ImplC1EP13odbx_result_tPKc@Base 1.4.6
 _ZN7OpenDBX8Lob_ImplC2EP13odbx_result_tPKc@Base 1.4.6
 _ZN7OpenDBX8Lob_ImplD0Ev@Base 1.4.6
 _ZN7OpenDBX8Lob_ImplD1Ev@Base 1.4.6
 _ZN7OpenDBX8Lob_ImplD2Ev@Base 1.4.6
 _ZN7OpenDBX9Conn_Impl13getCapabilityE7odbxcap@Base 1.4.6
 _ZN7OpenDBX9Conn_Impl4bindEPKcS2_S2_8odbxbind@Base 1.4.6
 _ZN7OpenDBX9Conn_Impl6createERKSsNS_4Stmt4TypeE@Base 1.4.6
 _ZN7OpenDBX9Conn_Impl6escapeEPKcmRSs@Base 1.4.6
 _ZN7OpenDBX9Conn_Impl6finishEv@Base 1.4.6
 _ZN7OpenDBX9Conn_Impl6unbindEv@Base 1.4.6
 _ZN7OpenDBX9Conn_Impl9getOptionE7odbxoptPv@Base 1.4.6
 _ZN7OpenDBX9Conn_Impl9setOptionE7odbxoptPv@Base 1.4.6
 _ZN7OpenDBX9Conn_ImplC1EPKcS2_S2_@Base 1.4.6
 _ZN7OpenDBX9Conn_ImplC2EPKcS2_S2_@Base 1.4.6
 _ZN7OpenDBX9Conn_ImplD0Ev@Base 1.4.6
 _ZN7OpenDBX9Conn_ImplD1Ev@Base 1.4.6
 _ZN7OpenDBX9Conn_ImplD2Ev@Base 1.4.6
 _ZN7OpenDBX9ExceptionC1ERKSsii@Base 1.4.6
 _ZN7OpenDBX9ExceptionC2ERKSsii@Base 1.4.6
 _ZN7OpenDBX9ExceptionD0Ev@Base 1.4.6
 _ZN7OpenDBX9ExceptionD1Ev@Base 1.4.6
 _ZN7OpenDBX9ExceptionD2Ev@Base 1.4.6
 _ZN7OpenDBX9Stmt_ImplC1EP6odbx_t@Base 1.4.6
 _ZN7OpenDBX9Stmt_ImplC2EP6odbx_t@Base 1.4.6
 _ZNK7OpenDBX9Exception7getCodeEv@Base 1.4.6
 _ZNK7OpenDBX9Exception7getTypeEv@Base 1.4.6
 _ZNK7OpenDBX9Stmt_Impl10_getHandleEv@Base 1.4.6
 _ZNSt8_Rb_treeIKSsSt4pairIS0_mESt10_Select1stIS2_ESt4lessIS0_ESaIS2_EE17_M_insert_unique_ESt23_Rb_tree_const_iteratorIS2_ERKS2_@Base 1.4.6
 _ZNSt8_Rb_treeIKSsSt4pairIS0_mESt10_Select1stIS2_ESt4lessIS0_ESaIS2_EE24_M_get_insert_unique_posERS0_@Base 1.4.6
 _ZNSt8_Rb_treeIKSsSt4pairIS0_mESt10_Select1stIS2_ESt4lessIS0_ESaIS2_EE29_M_get_insert_hint_unique_posESt23_Rb_tree_const_iteratorIS2_ERS0_@Base 1.4.6
 _ZNSt8_Rb_treeIKSsSt4pairIS0_mESt10_Select1stIS2_ESt4lessIS0_ESaIS2_EE4findERS0_@Base 1.4.6
 _ZNSt8_Rb_treeIKSsSt4pairIS0_mESt10_Select1stIS2_ESt4lessIS0_ESaIS2_EE8_M_eraseEPSt13_Rb_tree_nodeIS2_E@Base 1.4.6
 _ZTIN7OpenDBX10Conn_IfaceE@Base 1.4.6
 _ZTIN7OpenDBX10Stmt_IfaceE@Base 1.4.6
 _ZTIN7OpenDBX11Result_ImplE@Base 1.4.6
 _ZTIN7OpenDBX12Result_IfaceE@Base 1.4.6
 _ZTIN7OpenDBX15StmtSimple_ImplE@Base 1.4.6
 _ZTIN7OpenDBX8Lob_ImplE@Base 1.4.6
 _ZTIN7OpenDBX9Conn_ImplE@Base 1.4.6
 _ZTIN7OpenDBX9ExceptionE@Base 1.4.6
 _ZTIN7OpenDBX9Lob_IfaceE@Base 1.4.6
 _ZTIN7OpenDBX9Stmt_ImplE@Base 1.4.6
 _ZTSN7OpenDBX10Conn_IfaceE@Base 1.4.6
 _ZTSN7OpenDBX10Stmt_IfaceE@Base 1.4.6
 _ZTSN7OpenDBX11Result_ImplE@Base 1.4.6
 _ZTSN7OpenDBX12Result_IfaceE@Base 1.4.6
 _ZTSN7OpenDBX15StmtSimple_ImplE@Base 1.4.6
 _ZTSN7OpenDBX8Lob_ImplE@Base 1.4.6
 _ZTSN7OpenDBX9Conn_ImplE@Base 1.4.6
 _ZTSN7OpenDBX9ExceptionE@Base 1.4.6
 _ZTSN7OpenDBX9Lob_IfaceE@Base 1.4.6
 _ZTSN7OpenDBX9Stmt_ImplE@Base 1.4.6
 _ZTVN7OpenDBX10Conn_IfaceE@Base 1.4.6
 _ZTVN7OpenDBX10Stmt_IfaceE@Base 1.4.6
 _ZTVN7OpenDBX11Result_ImplE@Base 1.4.6
 _ZTVN7OpenDBX12Result_IfaceE@Base 1.4.6
 _ZTVN7OpenDBX15StmtSimple_ImplE@Base 1.4.6
 _ZTVN7OpenDBX8Lob_ImplE@Base 1.4.6
 _ZTVN7OpenDBX9Conn_ImplE@Base 1.4.6
 _ZTVN7OpenDBX9ExceptionE@Base 1.4.6
 _ZTVN7OpenDBX9Lob_IfaceE@Base 1.4.6
 _ZTVN7OpenDBX9Stmt_ImplE@Base 1.4.6
